target datalayout = "e-m:e-p270:32:32-p271:32:32-p272:64:64-i64:64-i128:128-f80:128-n8:16:32:64-S128"
target triple = "x86_64-pc-linux-gnu"

%struct.cJSON = type { ptr, ptr, ptr, i32, ptr, i32, double, ptr }

; Function Attrs: nounwind sspstrong uwtable
define internal i32 @case_insensitive_strcmp(ptr noundef %0, ptr noundef %1) #0 {
  %3 = alloca i32, align 4
  %4 = alloca ptr, align 8
  %5 = alloca ptr, align 8
  %6 = alloca i32, align 4
  %7 = alloca i32, align 4
  %8 = alloca i32, align 4
  %9 = alloca i32, align 4
  %10 = alloca i32, align 4
  %11 = alloca i32, align 4
  %12 = alloca i32, align 4
  %13 = alloca i32, align 4
  store ptr %0, ptr %4, align 8, !tbaa !33
  store ptr %1, ptr %5, align 8, !tbaa !33
  %14 = load ptr, ptr %4, align 8, !tbaa !33
  %15 = icmp eq ptr %14, null
  br i1 %15, label %19, label %16

16:                                               ; preds = %2
  %17 = load ptr, ptr %5, align 8, !tbaa !33
  %18 = icmp eq ptr %17, null
  br i1 %18, label %19, label %20

19:                                               ; preds = %16, %2
  store i32 1, ptr %3, align 4
  br label %82

20:                                               ; preds = %16
  %21 = load ptr, ptr %4, align 8, !tbaa !33
  %22 = load ptr, ptr %5, align 8, !tbaa !33
  %23 = icmp eq ptr %21, %22
  br i1 %23, label %24, label %25

24:                                               ; preds = %20
  store i32 0, ptr %3, align 4
  br label %82

25:                                               ; preds = %20
  br label %26

26:                                               ; preds = %55, %25
  call void @llvm.lifetime.start.p0(i64 4, ptr %6) #10
  %27 = call ptr @__ctype_tolower_loc() #12
  %28 = load ptr, ptr %27, align 8, !tbaa !55
  %29 = load ptr, ptr %4, align 8, !tbaa !33
  %30 = load i8, ptr %29, align 1, !tbaa !46
  %31 = zext i8 %30 to i32
  %32 = sext i32 %31 to i64
  %33 = getelementptr inbounds i32, ptr %28, i64 %32
  %34 = load i32, ptr %33, align 4, !tbaa !40
  store i32 %34, ptr %6, align 4, !tbaa !40
  %35 = load i32, ptr %6, align 4, !tbaa !40
  store i32 %35, ptr %7, align 4, !tbaa !40
  call void @llvm.lifetime.end.p0(i64 4, ptr %6) #10
  %36 = load i32, ptr %7, align 4, !tbaa !40
  call void @llvm.lifetime.start.p0(i64 4, ptr %8) #10
  %37 = call ptr @__ctype_tolower_loc() #12
  %38 = load ptr, ptr %37, align 8, !tbaa !55
  %39 = load ptr, ptr %5, align 8, !tbaa !33
  %40 = load i8, ptr %39, align 1, !tbaa !46
  %41 = zext i8 %40 to i32
  %42 = sext i32 %41 to i64
  %43 = getelementptr inbounds i32, ptr %38, i64 %42
  %44 = load i32, ptr %43, align 4, !tbaa !40
  store i32 %44, ptr %8, align 4, !tbaa !40
  %45 = load i32, ptr %8, align 4, !tbaa !40
  store i32 %45, ptr %9, align 4, !tbaa !40
  call void @llvm.lifetime.end.p0(i64 4, ptr %8) #10
  %46 = load i32, ptr %9, align 4, !tbaa !40
  %47 = icmp eq i32 %36, %46
  br i1 %47, label %48, label %60

48:                                               ; preds = %26
  %49 = load ptr, ptr %4, align 8, !tbaa !33
  %50 = load i8, ptr %49, align 1, !tbaa !46
  %51 = zext i8 %50 to i32
  %52 = icmp eq i32 %51, 0
  br i1 %52, label %53, label %54

53:                                               ; preds = %48
  store i32 0, ptr %3, align 4
  br label %82

54:                                               ; preds = %48
  br label %55

55:                                               ; preds = %54
  %56 = load ptr, ptr %4, align 8, !tbaa !33
  %57 = getelementptr inbounds nuw i8, ptr %56, i32 1
  store ptr %57, ptr %4, align 8, !tbaa !33
  %58 = load ptr, ptr %5, align 8, !tbaa !33
  %59 = getelementptr inbounds nuw i8, ptr %58, i32 1
  store ptr %59, ptr %5, align 8, !tbaa !33
  br label %26

60:                                               ; preds = %26
  call void @llvm.lifetime.start.p0(i64 4, ptr %10) #10
  %61 = call ptr @__ctype_tolower_loc() #12
  %62 = load ptr, ptr %61, align 8, !tbaa !55
  %63 = load ptr, ptr %4, align 8, !tbaa !33
  %64 = load i8, ptr %63, align 1, !tbaa !46
  %65 = zext i8 %64 to i32
  %66 = sext i32 %65 to i64
  %67 = getelementptr inbounds i32, ptr %62, i64 %66
  %68 = load i32, ptr %67, align 4, !tbaa !40
  store i32 %68, ptr %10, align 4, !tbaa !40
  %69 = load i32, ptr %10, align 4, !tbaa !40
  store i32 %69, ptr %11, align 4, !tbaa !40
  call void @llvm.lifetime.end.p0(i64 4, ptr %10) #10
  %70 = load i32, ptr %11, align 4, !tbaa !40
  call void @llvm.lifetime.start.p0(i64 4, ptr %12) #10
  %71 = call ptr @__ctype_tolower_loc() #12
  %72 = load ptr, ptr %71, align 8, !tbaa !55
  %73 = load ptr, ptr %5, align 8, !tbaa !33
  %74 = load i8, ptr %73, align 1, !tbaa !46
  %75 = zext i8 %74 to i32
  %76 = sext i32 %75 to i64
  %77 = getelementptr inbounds i32, ptr %72, i64 %76
  %78 = load i32, ptr %77, align 4, !tbaa !40
  store i32 %78, ptr %12, align 4, !tbaa !40
  %79 = load i32, ptr %12, align 4, !tbaa !40
  store i32 %79, ptr %13, align 4, !tbaa !40
  call void @llvm.lifetime.end.p0(i64 4, ptr %12) #10
  %80 = load i32, ptr %13, align 4, !tbaa !40
  %81 = sub nsw i32 %70, %80
  store i32 %81, ptr %3, align 4
  br label %82

82:                                               ; preds = %60, %53, %24, %19
  %83 = load i32, ptr %3, align 4
  ret i32 %83
}

; Function Attrs: nounwind sspstrong uwtable
define internal ptr @get_object_item(ptr noundef %0, ptr noundef %1, i32 noundef %2) #0 {
  %4 = alloca ptr, align 8
  %5 = alloca ptr, align 8
  %6 = alloca ptr, align 8
  %7 = alloca i32, align 4
  %8 = alloca ptr, align 8
  %9 = alloca i32, align 4
  store ptr %0, ptr %5, align 8, !tbaa !11
  store ptr %1, ptr %6, align 8, !tbaa !33
  store i32 %2, ptr %7, align 4, !tbaa !40
  call void @llvm.lifetime.start.p0(i64 8, ptr %8) #10
  store ptr null, ptr %8, align 8, !tbaa !11
  %10 = load ptr, ptr %5, align 8, !tbaa !11
  %11 = icmp eq ptr %10, null
  br i1 %11, label %15, label %12

12:                                               ; preds = %3
  %13 = load ptr, ptr %6, align 8, !tbaa !33
  %14 = icmp eq ptr %13, null
  br i1 %14, label %15, label %16

15:                                               ; preds = %12, %3
  store ptr null, ptr %4, align 8
  store i32 1, ptr %9, align 4
  br label %74

16:                                               ; preds = %12
  %17 = load ptr, ptr %5, align 8, !tbaa !11
  %18 = getelementptr inbounds nuw %struct.cJSON, ptr %17, i32 0, i32 2
  %19 = load ptr, ptr %18, align 8, !tbaa !29
  store ptr %19, ptr %8, align 8, !tbaa !11
  %20 = load i32, ptr %7, align 4, !tbaa !40
  %21 = icmp ne i32 %20, 0
  br i1 %21, label %22, label %45

22:                                               ; preds = %16
  br label %23

23:                                               ; preds = %40, %22
  %24 = load ptr, ptr %8, align 8, !tbaa !11
  %25 = icmp ne ptr %24, null
  br i1 %25, label %26, label %38

26:                                               ; preds = %23
  %27 = load ptr, ptr %8, align 8, !tbaa !11
  %28 = getelementptr inbounds nuw %struct.cJSON, ptr %27, i32 0, i32 7
  %29 = load ptr, ptr %28, align 8, !tbaa !30
  %30 = icmp ne ptr %29, null
  br i1 %30, label %31, label %38

31:                                               ; preds = %26
  %32 = load ptr, ptr %6, align 8, !tbaa !33
  %33 = load ptr, ptr %8, align 8, !tbaa !11
  %34 = getelementptr inbounds nuw %struct.cJSON, ptr %33, i32 0, i32 7
  %35 = load ptr, ptr %34, align 8, !tbaa !30
  %36 = call i32 @strcmp(ptr noundef %32, ptr noundef %35) #11
  %37 = icmp ne i32 %36, 0
  br label %38

38:                                               ; preds = %31, %26, %23
  %39 = phi i1 [ false, %26 ], [ false, %23 ], [ %37, %31 ]
  br i1 %39, label %40, label %44

40:                                               ; preds = %38
  %41 = load ptr, ptr %8, align 8, !tbaa !11
  %42 = getelementptr inbounds nuw %struct.cJSON, ptr %41, i32 0, i32 0
  %43 = load ptr, ptr %42, align 8, !tbaa !28
  store ptr %43, ptr %8, align 8, !tbaa !11
  br label %23

44:                                               ; preds = %38
  br label %63

45:                                               ; preds = %16
  br label %46

46:                                               ; preds = %58, %45
  %47 = load ptr, ptr %8, align 8, !tbaa !11
  %48 = icmp ne ptr %47, null
  br i1 %48, label %49, label %56

49:                                               ; preds = %46
  %50 = load ptr, ptr %6, align 8, !tbaa !33
  %51 = load ptr, ptr %8, align 8, !tbaa !11
  %52 = getelementptr inbounds nuw %struct.cJSON, ptr %51, i32 0, i32 7
  %53 = load ptr, ptr %52, align 8, !tbaa !30
  %54 = call i32 @case_insensitive_strcmp(ptr noundef %50, ptr noundef %53)
  %55 = icmp ne i32 %54, 0
  br label %56

56:                                               ; preds = %49, %46
  %57 = phi i1 [ false, %46 ], [ %55, %49 ]
  br i1 %57, label %58, label %62

58:                                               ; preds = %56
  %59 = load ptr, ptr %8, align 8, !tbaa !11
  %60 = getelementptr inbounds nuw %struct.cJSON, ptr %59, i32 0, i32 0
  %61 = load ptr, ptr %60, align 8, !tbaa !28
  store ptr %61, ptr %8, align 8, !tbaa !11
  br label %46

62:                                               ; preds = %56
  br label %63

63:                                               ; preds = %62, %44
  %64 = load ptr, ptr %8, align 8, !tbaa !11
  %65 = icmp eq ptr %64, null
  br i1 %65, label %71, label %66

66:                                               ; preds = %63
  %67 = load ptr, ptr %8, align 8, !tbaa !11
  %68 = getelementptr inbounds nuw %struct.cJSON, ptr %67, i32 0, i32 7
  %69 = load ptr, ptr %68, align 8, !tbaa !30
  %70 = icmp eq ptr %69, null
  br i1 %70, label %71, label %72

71:                                               ; preds = %66, %63
  store ptr null, ptr %4, align 8
  store i32 1, ptr %9, align 4
  br label %74

72:                                               ; preds = %66
  %73 = load ptr, ptr %8, align 8, !tbaa !11
  store ptr %73, ptr %4, align 8
  store i32 1, ptr %9, align 4
  br label %74

74:                                               ; preds = %72, %71, %15
  call void @llvm.lifetime.end.p0(i64 8, ptr %8) #10
  %75 = load ptr, ptr %4, align 8
  ret ptr %75
}

; Function Attrs: nounwind sspstrong uwtable
define ptr @cJSON_DetachItemViaPointer(ptr noundef %0, ptr noundef %1) #0 {
  %3 = alloca ptr, align 8
  %4 = alloca ptr, align 8
  %5 = alloca ptr, align 8
  store ptr %0, ptr %4, align 8, !tbaa !11
  store ptr %1, ptr %5, align 8, !tbaa !11
  %6 = load ptr, ptr %4, align 8, !tbaa !11
  %7 = icmp eq ptr %6, null
  br i1 %7, label %22, label %8

8:                                                ; preds = %2
  %9 = load ptr, ptr %5, align 8, !tbaa !11
  %10 = icmp eq ptr %9, null
  br i1 %10, label %22, label %11

11:                                               ; preds = %8
  %12 = load ptr, ptr %5, align 8, !tbaa !11
  %13 = load ptr, ptr %4, align 8, !tbaa !11
  %14 = getelementptr inbounds nuw %struct.cJSON, ptr %13, i32 0, i32 2
  %15 = load ptr, ptr %14, align 8, !tbaa !29
  %16 = icmp ne ptr %12, %15
  br i1 %16, label %17, label %23

17:                                               ; preds = %11
  %18 = load ptr, ptr %5, align 8, !tbaa !11
  %19 = getelementptr inbounds nuw %struct.cJSON, ptr %18, i32 0, i32 1
  %20 = load ptr, ptr %19, align 8, !tbaa !54
  %21 = icmp eq ptr %20, null
  br i1 %21, label %22, label %23

22:                                               ; preds = %17, %8, %2
  store ptr null, ptr %3, align 8
  br label %82

23:                                               ; preds = %17, %11
  %24 = load ptr, ptr %5, align 8, !tbaa !11
  %25 = load ptr, ptr %4, align 8, !tbaa !11
  %26 = getelementptr inbounds nuw %struct.cJSON, ptr %25, i32 0, i32 2
  %27 = load ptr, ptr %26, align 8, !tbaa !29
  %28 = icmp ne ptr %24, %27
  br i1 %28, label %29, label %37

29:                                               ; preds = %23
  %30 = load ptr, ptr %5, align 8, !tbaa !11
  %31 = getelementptr inbounds nuw %struct.cJSON, ptr %30, i32 0, i32 0
  %32 = load ptr, ptr %31, align 8, !tbaa !28
  %33 = load ptr, ptr %5, align 8, !tbaa !11
  %34 = getelementptr inbounds nuw %struct.cJSON, ptr %33, i32 0, i32 1
  %35 = load ptr, ptr %34, align 8, !tbaa !54
  %36 = getelementptr inbounds nuw %struct.cJSON, ptr %35, i32 0, i32 0
  store ptr %32, ptr %36, align 8, !tbaa !28
  br label %37

37:                                               ; preds = %29, %23
  %38 = load ptr, ptr %5, align 8, !tbaa !11
  %39 = getelementptr inbounds nuw %struct.cJSON, ptr %38, i32 0, i32 0
  %40 = load ptr, ptr %39, align 8, !tbaa !28
  %41 = icmp ne ptr %40, null
  br i1 %41, label %42, label %50

42:                                               ; preds = %37
  %43 = load ptr, ptr %5, align 8, !tbaa !11
  %44 = getelementptr inbounds nuw %struct.cJSON, ptr %43, i32 0, i32 1
  %45 = load ptr, ptr %44, align 8, !tbaa !54
  %46 = load ptr, ptr %5, align 8, !tbaa !11
  %47 = getelementptr inbounds nuw %struct.cJSON, ptr %46, i32 0, i32 0
  %48 = load ptr, ptr %47, align 8, !tbaa !28
  %49 = getelementptr inbounds nuw %struct.cJSON, ptr %48, i32 0, i32 1
  store ptr %45, ptr %49, align 8, !tbaa !54
  br label %50

50:                                               ; preds = %42, %37
  %51 = load ptr, ptr %5, align 8, !tbaa !11
  %52 = load ptr, ptr %4, align 8, !tbaa !11
  %53 = getelementptr inbounds nuw %struct.cJSON, ptr %52, i32 0, i32 2
  %54 = load ptr, ptr %53, align 8, !tbaa !29
  %55 = icmp eq ptr %51, %54
  br i1 %55, label %56, label %62

56:                                               ; preds = %50
  %57 = load ptr, ptr %5, align 8, !tbaa !11
  %58 = getelementptr inbounds nuw %struct.cJSON, ptr %57, i32 0, i32 0
  %59 = load ptr, ptr %58, align 8, !tbaa !28
  %60 = load ptr, ptr %4, align 8, !tbaa !11
  %61 = getelementptr inbounds nuw %struct.cJSON, ptr %60, i32 0, i32 2
  store ptr %59, ptr %61, align 8, !tbaa !29
  br label %76

62:                                               ; preds = %50
  %63 = load ptr, ptr %5, align 8, !tbaa !11
  %64 = getelementptr inbounds nuw %struct.cJSON, ptr %63, i32 0, i32 0
  %65 = load ptr, ptr %64, align 8, !tbaa !28
  %66 = icmp eq ptr %65, null
  br i1 %66, label %67, label %75

67:                                               ; preds = %62
  %68 = load ptr, ptr %5, align 8, !tbaa !11
  %69 = getelementptr inbounds nuw %struct.cJSON, ptr %68, i32 0, i32 1
  %70 = load ptr, ptr %69, align 8, !tbaa !54
  %71 = load ptr, ptr %4, align 8, !tbaa !11
  %72 = getelementptr inbounds nuw %struct.cJSON, ptr %71, i32 0, i32 2
  %73 = load ptr, ptr %72, align 8, !tbaa !29
  %74 = getelementptr inbounds nuw %struct.cJSON, ptr %73, i32 0, i32 1
  store ptr %70, ptr %74, align 8, !tbaa !54
  br label %75

75:                                               ; preds = %67, %62
  br label %76

76:                                               ; preds = %75, %56
  %77 = load ptr, ptr %5, align 8, !tbaa !11
  %78 = getelementptr inbounds nuw %struct.cJSON, ptr %77, i32 0, i32 1
  store ptr null, ptr %78, align 8, !tbaa !54
  %79 = load ptr, ptr %5, align 8, !tbaa !11
  %80 = getelementptr inbounds nuw %struct.cJSON, ptr %79, i32 0, i32 0
  store ptr null, ptr %80, align 8, !tbaa !28
  %81 = load ptr, ptr %5, align 8, !tbaa !11
  store ptr %81, ptr %3, align 8
  br label %82

82:                                               ; preds = %76, %22
  %83 = load ptr, ptr %3, align 8
  ret ptr %83
}

; Function Attrs: nounwind sspstrong uwtable
define ptr @cJSON_GetObjectItemCaseSensitive(ptr noundef %0, ptr noundef %1) #0 {
  %3 = alloca ptr, align 8
  %4 = alloca ptr, align 8
  store ptr %0, ptr %3, align 8, !tbaa !11
  store ptr %1, ptr %4, align 8, !tbaa !33
  %5 = load ptr, ptr %3, align 8, !tbaa !11
  %6 = load ptr, ptr %4, align 8, !tbaa !33
  %7 = call ptr @get_object_item(ptr noundef %5, ptr noundef %6, i32 noundef 1)
  ret ptr %7
}

; Function Attrs: nounwind sspstrong uwtable
define ptr @cJSON_DetachItemFromObjectCaseSensitive(ptr noundef %0, ptr noundef %1) #0 {
  %3 = alloca ptr, align 8
  %4 = alloca ptr, align 8
  %5 = alloca ptr, align 8
  store ptr %0, ptr %3, align 8, !tbaa !11
  store ptr %1, ptr %4, align 8, !tbaa !33
  call void @llvm.lifetime.start.p0(i64 8, ptr %5) #10
  %6 = load ptr, ptr %3, align 8, !tbaa !11
  %7 = load ptr, ptr %4, align 8, !tbaa !33
  %8 = call ptr @cJSON_GetObjectItemCaseSensitive(ptr noundef %6, ptr noundef %7)
  store ptr %8, ptr %5, align 8, !tbaa !11
  %9 = load ptr, ptr %3, align 8, !tbaa !11
  %10 = load ptr, ptr %5, align 8, !tbaa !11
  %11 = call ptr @cJSON_DetachItemViaPointer(ptr noundef %9, ptr noundef %10)
  call void @llvm.lifetime.end.p0(i64 8, ptr %5) #10
  ret ptr %11
}

; Function Attrs: nounwind sspstrong uwtable
define void @cJSON_DeleteItemFromObjectCaseSensitive(ptr noundef %0, ptr noundef %1) #0 {
  %3 = alloca ptr, align 8
  %4 = alloca ptr, align 8
  store ptr %0, ptr %3, align 8, !tbaa !11
  store ptr %1, ptr %4, align 8, !tbaa !33
  %5 = load ptr, ptr %3, align 8, !tbaa !11
  %6 = load ptr, ptr %4, align 8, !tbaa !33
  %7 = call ptr @cJSON_DetachItemFromObjectCaseSensitive(ptr noundef %5, ptr noundef %6)
  call void @cJSON_Delete(ptr noundef %7)
  ret void
}