; Function Attrs: nounwind sspstrong uwtable
define void @cJSON_DeleteItemFromObjectCaseSensitive(ptr noundef %0, ptr noundef readonly %1) local_unnamed_addr #8 {
  %3 = icmp eq ptr %0, null
  %4 = icmp eq ptr %1, null
  %or.cond.i.i.i = or i1 %3, %4
  br i1 %or.cond.i.i.i, label %cJSON_DetachItemFromObjectCaseSensitive.exit, label %5

5:                                                ; preds = %2
  %6 = getelementptr inbounds nuw i8, ptr %0, i64 16
  %7 = load ptr, ptr %6, align 8, !tbaa !25
  %.not2350.i.i.i = icmp eq ptr %7, null
  br i1 %.not2350.i.i.i, label %cJSON_DetachItemFromObjectCaseSensitive.exit, label %.lr.ph.i.i.i

.lr.ph.i.i.i:                                     ; preds = %5, %12
  %.049.i.i.i = phi ptr [ %13, %12 ], [ %7, %5 ]
  %8 = getelementptr inbounds nuw i8, ptr %.049.i.i.i, i64 56
  %9 = load ptr, ptr %8, align 8, !tbaa !26
  %.not26.i.i.i = icmp eq ptr %9, null
  br i1 %.not26.i.i.i, label %cJSON_DetachItemFromObjectCaseSensitive.exit, label %10

10:                                               ; preds = %.lr.ph.i.i.i
  %11 = tail call i32 @strcmp(ptr noundef nonnull readonly dereferenceable(1) %1, ptr noundef nonnull dereferenceable(1) %9) #32
  %.not27.i.i.i = icmp eq i32 %11, 0
  br i1 %.not27.i.i.i, label %cJSON_GetObjectItemCaseSensitive.exit.i, label %12

12:                                               ; preds = %10
  %13 = load ptr, ptr %.049.i.i.i, align 8, !tbaa !24
  %.not25.i.i.i = icmp eq ptr %13, null
  br i1 %.not25.i.i.i, label %cJSON_DetachItemFromObjectCaseSensitive.exit, label %.lr.ph.i.i.i

cJSON_GetObjectItemCaseSensitive.exit.i:          ; preds = %10
  %.not.i.i = icmp eq ptr %.049.i.i.i, %7
  br i1 %.not.i.i, label %.thread.i.i, label %14

14:                                               ; preds = %cJSON_GetObjectItemCaseSensitive.exit.i
  %15 = getelementptr inbounds nuw i8, ptr %.049.i.i.i, i64 8
  %16 = load ptr, ptr %15, align 8, !tbaa !40
  %17 = icmp eq ptr %16, null
  br i1 %17, label %cJSON_DetachItemFromObjectCaseSensitive.exit, label %.thread.thread.i.i

.thread.i.i:                                      ; preds = %cJSON_GetObjectItemCaseSensitive.exit.i
  %18 = load ptr, ptr %.049.i.i.i, align 8, !tbaa !24
  %.not29.i.i = icmp eq ptr %18, null
  br i1 %.not29.i.i, label %24, label %.thread30.i.i

.thread.thread.i.i:                               ; preds = %14
  %19 = load ptr, ptr %.049.i.i.i, align 8, !tbaa !24
  store ptr %19, ptr %16, align 8, !tbaa !24
  %.not2932.i.i = icmp eq ptr %19, null
  br i1 %.not2932.i.i, label %25, label %.thread31.i.i

.thread30.i.i:                                    ; preds = %.thread.i.i
  %20 = getelementptr inbounds nuw i8, ptr %.049.i.i.i, i64 8
  %21 = load ptr, ptr %20, align 8, !tbaa !40
  %22 = getelementptr inbounds nuw i8, ptr %18, i64 8
  store ptr %21, ptr %22, align 8, !tbaa !40
  br label %24

.thread31.i.i:                                    ; preds = %.thread.thread.i.i
  %23 = getelementptr inbounds nuw i8, ptr %19, i64 8
  store ptr %16, ptr %23, align 8, !tbaa !40
  br label %27

24:                                               ; preds = %.thread30.i.i, %.thread.i.i
  store ptr %18, ptr %6, align 8, !tbaa !25
  br label %27

25:                                               ; preds = %.thread.thread.i.i
  %26 = getelementptr inbounds nuw i8, ptr %7, i64 8
  store ptr %16, ptr %26, align 8, !tbaa !40
  br label %27

27:                                               ; preds = %25, %24, %.thread31.i.i
  tail call void @llvm.memset.p0.i64(ptr noundef nonnull align 8 dereferenceable(16) %.049.i.i.i, i8 0, i64 16, i1 false)
  br label %cJSON_DetachItemFromObjectCaseSensitive.exit

cJSON_DetachItemFromObjectCaseSensitive.exit:     ; preds = %.lr.ph.i.i.i, %12, %2, %5, %14, %27
  %.0.i.i = phi ptr [ %.049.i.i.i, %27 ], [ null, %14 ], [ null, %2 ], [ null, %5 ], [ null, %12 ], [ null, %.lr.ph.i.i.i ]
  tail call void @cJSON_Delete(ptr noundef %.0.i.i)
  ret void
}